target datalayout = "e-m:e-p270:32:32-p271:32:32-p272:64:64-i64:64-i128:128-f80:128-n8:16:32:64-S128"
target triple = "x86_64-pc-linux-gnu"

%struct.option_handler = type { ptr, ptr, ptr }

@option_handlers = internal global [7 x ptr] zeroinitializer, align 16

; Function Attrs: nounwind uwtable
define internal i32 @get_block_type_index(i32 noundef %0, ptr noundef %1) #0 {
  %3 = alloca i32, align 4
  %4 = alloca i32, align 4
  %5 = alloca ptr, align 8
  store i32 %0, ptr %4, align 4
  store ptr %1, ptr %5, align 8
  br label %6

6:                                                ; preds = %2
  br label %7

7:                                                ; preds = %6
  %8 = load i32, ptr %4, align 4
  switch i32 %8, label %23 [
    i32 168627466, label %9
    i32 1, label %11
    i32 2, label %13
    i32 6, label %13
    i32 3, label %13
    i32 4, label %15
    i32 5, label %17
    i32 516, label %19
    i32 534, label %19
    i32 545, label %19
    i32 513, label %19
    i32 514, label %19
    i32 515, label %19
    i32 517, label %19
    i32 518, label %19
    i32 519, label %19
    i32 521, label %19
    i32 528, label %19
    i32 529, label %19
    i32 530, label %19
    i32 531, label %19
    i32 532, label %19
    i32 533, label %19
    i32 536, label %19
    i32 537, label %19
    i32 544, label %19
    i32 10, label %21
  ]

9:                                                ; preds = %7
  %10 = load ptr, ptr %5, align 8
  store i32 0, ptr %10, align 4
  br label %24

11:                                               ; preds = %7
  %12 = load ptr, ptr %5, align 8
  store i32 1, ptr %12, align 4
  br label %24

13:                                               ; preds = %7, %7, %7
  %14 = load ptr, ptr %5, align 8
  store i32 2, ptr %14, align 4
  br label %24

15:                                               ; preds = %7
  %16 = load ptr, ptr %5, align 8
  store i32 3, ptr %16, align 4
  br label %24

17:                                               ; preds = %7
  %18 = load ptr, ptr %5, align 8
  store i32 4, ptr %18, align 4
  br label %24

19:                                               ; preds = %7, %7, %7, %7, %7, %7, %7, %7, %7, %7, %7, %7, %7, %7, %7, %7, %7, %7, %7
  %20 = load ptr, ptr %5, align 8
  store i32 5, ptr %20, align 4
  br label %24

21:                                               ; preds = %7
  %22 = load ptr, ptr %5, align 8
  store i32 6, ptr %22, align 4
  br label %24

23:                                               ; preds = %7
  store i32 0, ptr %3, align 4
  br label %25

24:                                               ; preds = %21, %19, %17, %15, %13, %11, %9
  store i32 1, ptr %3, align 4
  br label %25

25:                                               ; preds = %24, %23
  %26 = load i32, ptr %3, align 4
  ret i32 %26
}

; Function Attrs: nounwind uwtable
define void @register_pcapng_option_handler(i32 noundef %0, i32 noundef %1, ptr noundef %2, ptr noundef %3, ptr noundef %4) #0 {
  %6 = alloca i32, align 4
  %7 = alloca i32, align 4
  %8 = alloca ptr, align 8
  %9 = alloca ptr, align 8
  %10 = alloca ptr, align 8
  %11 = alloca i32, align 4
  %12 = alloca ptr, align 8
  store i32 %0, ptr %6, align 4
  store i32 %1, ptr %7, align 4
  store ptr %2, ptr %8, align 8
  store ptr %3, ptr %9, align 8
  store ptr %4, ptr %10, align 8
  %13 = load i32, ptr %6, align 4
  %14 = call i32 @get_block_type_index(i32 noundef %13, ptr noundef %11)
  %15 = icmp ne i32 %14, 0
  br i1 %15, label %17, label %16

16:                                               ; preds = %5
  br label %48

17:                                               ; preds = %5
  %18 = load i32, ptr %11, align 4
  %19 = zext i32 %18 to i64
  %20 = getelementptr [7 x ptr], ptr @option_handlers, i64 0, i64 %19
  %21 = load ptr, ptr %20, align 8
  %22 = icmp eq ptr %21, null
  br i1 %22, label %23, label %28

23:                                               ; preds = %17
  %24 = call ptr @g_hash_table_new_full(ptr noundef @g_direct_hash, ptr noundef @g_direct_equal, ptr noundef null, ptr noundef @g_free)
  %25 = load i32, ptr %11, align 4
  %26 = zext i32 %25 to i64
  %27 = getelementptr [7 x ptr], ptr @option_handlers, i64 0, i64 %26
  store ptr %24, ptr %27, align 8
  br label %28

28:                                               ; preds = %23, %17
  %29 = call noalias ptr @g_malloc_n(i64 noundef 1, i64 noundef 24) #10
  store ptr %29, ptr %12, align 8
  %30 = load ptr, ptr %8, align 8
  %31 = load ptr, ptr %12, align 8
  %32 = getelementptr inbounds %struct.option_handler, ptr %31, i32 0, i32 0
  store ptr %30, ptr %32, align 8
  %33 = load ptr, ptr %9, align 8
  %34 = load ptr, ptr %12, align 8
  %35 = getelementptr inbounds %struct.option_handler, ptr %34, i32 0, i32 1
  store ptr %33, ptr %35, align 8
  %36 = load ptr, ptr %10, align 8
  %37 = load ptr, ptr %12, align 8
  %38 = getelementptr inbounds %struct.option_handler, ptr %37, i32 0, i32 2
  store ptr %36, ptr %38, align 8
  %39 = load i32, ptr %11, align 4
  %40 = zext i32 %39 to i64
  %41 = getelementptr [7 x ptr], ptr @option_handlers, i64 0, i64 %40
  %42 = load ptr, ptr %41, align 8
  %43 = load i32, ptr %7, align 4
  %44 = zext i32 %43 to i64
  %45 = inttoptr i64 %44 to ptr
  %46 = load ptr, ptr %12, align 8
  %47 = call i32 @g_hash_table_insert(ptr noundef %42, ptr noundef %45, ptr noundef %46)
  br label %48

48:                                               ; preds = %28, %16
  ret void
}