; Function Attrs: nounwind uwtable
define void @register_pcapng_option_handler(i32 noundef %0, i32 noundef %1, ptr noundef %2, ptr noundef %3, ptr noundef %4) local_unnamed_addr #0 {
  switch i32 %0, label %get_block_type_index.exit [
    i32 168627466, label %.sink.split.i
    i32 1, label %11
    i32 2, label %6
    i32 6, label %6
    i32 3, label %6
    i32 4, label %7
    i32 5, label %8
    i32 516, label %9
    i32 534, label %9
    i32 545, label %9
    i32 513, label %9
    i32 514, label %9
    i32 515, label %9
    i32 517, label %9
    i32 518, label %9
    i32 519, label %9
    i32 521, label %9
    i32 528, label %9
    i32 529, label %9
    i32 530, label %9
    i32 531, label %9
    i32 532, label %9
    i32 533, label %9
    i32 536, label %9
    i32 537, label %9
    i32 544, label %9
    i32 10, label %10
  ]

6:                                                ; preds = %5, %5, %5
  br label %11

7:                                                ; preds = %5
  br label %11

8:                                                ; preds = %5
  br label %11

9:                                                ; preds = %5, %5, %5, %5, %5, %5, %5, %5, %5, %5, %5, %5, %5, %5, %5, %5, %5, %5, %5
  br label %11

10:                                               ; preds = %5
  br label %11

.sink.split.i:                                    ; preds = %5
  br label %11

11:                                               ; preds = %5, %10, %9, %8, %7, %6, %.sink.split.i
  %.0.ph = phi i64 [ 0, %.sink.split.i ], [ 6, %10 ], [ 5, %9 ], [ 4, %8 ], [ 3, %7 ], [ 2, %6 ], [ 1, %5 ]
  %12 = getelementptr [7 x ptr], ptr @option_handlers, i64 0, i64 %.0.ph
  %13 = load ptr, ptr %12, align 8
  %14 = icmp eq ptr %13, null
  br i1 %14, label %15, label %17

15:                                               ; preds = %11
  %16 = tail call ptr @g_hash_table_new_full(ptr noundef nonnull @g_direct_hash, ptr noundef nonnull @g_direct_equal, ptr noundef null, ptr noundef nonnull @g_free) #16
  store ptr %16, ptr %12, align 8
  br label %17

17:                                               ; preds = %15, %11
  %18 = tail call noalias dereferenceable_or_null(24) ptr @g_malloc_n(i64 noundef 1, i64 noundef 24) #17
  store ptr %2, ptr %18, align 8
  %19 = getelementptr inbounds nuw i8, ptr %18, i64 8
  store ptr %3, ptr %19, align 8
  %20 = getelementptr inbounds nuw i8, ptr %18, i64 16
  store ptr %4, ptr %20, align 8
  %21 = load ptr, ptr %12, align 8
  %22 = zext i32 %1 to i64
  %23 = inttoptr i64 %22 to ptr
  %24 = tail call i32 @g_hash_table_insert(ptr noundef %21, ptr noundef %23, ptr noundef nonnull %18) #16
  br label %get_block_type_index.exit

get_block_type_index.exit:                        ; preds = %5, %17
  ret void
}